target datalayout = "e-m:e-p270:32:32-p271:32:32-p272:64:64-i64:64-i128:128-f80:128-n8:16:32:64-S128"
target triple = "x86_64-pc-linux-gnu"

%struct.ForEachState = type { ptr, i32 }
%struct.List = type { i32, i32, i32, ptr, [0 x %union.ListCell] }
%union.ListCell = type { ptr }

@dump_indent = internal global i32 0, align 4

; Function Attrs: nounwind uwtable
define internal void @dump_stmts(ptr noundef %0) #0 {
  %2 = alloca ptr, align 8
  %3 = alloca ptr, align 8
  %4 = alloca %struct.ForEachState, align 8
  store ptr %0, ptr %2, align 8
  call void @llvm.lifetime.start.p0(i64 8, ptr %3) #8
  %5 = load i32, ptr @dump_indent, align 4
  %6 = add i32 %5, 2
  store i32 %6, ptr @dump_indent, align 4
  call void @llvm.lifetime.start.p0(i64 16, ptr %4) #8
  %7 = getelementptr inbounds nuw %struct.ForEachState, ptr %4, i32 0, i32 0
  %8 = load ptr, ptr %2, align 8
  store ptr %8, ptr %7, align 8
  %9 = getelementptr inbounds nuw %struct.ForEachState, ptr %4, i32 0, i32 1
  store i32 0, ptr %9, align 8
  %10 = getelementptr i8, ptr %4, i64 12
  call void @llvm.memset.p0.i64(ptr align 4 %10, i8 0, i64 4, i1 false)
  br label %11

11:                                               ; preds = %40, %1
  %12 = getelementptr inbounds nuw %struct.ForEachState, ptr %4, i32 0, i32 0
  %13 = load ptr, ptr %12, align 8
  %14 = icmp ne ptr %13, null
  br i1 %14, label %15, label %32

15:                                               ; preds = %11
  %16 = getelementptr inbounds nuw %struct.ForEachState, ptr %4, i32 0, i32 1
  %17 = load i32, ptr %16, align 8
  %18 = getelementptr inbounds nuw %struct.ForEachState, ptr %4, i32 0, i32 0
  %19 = load ptr, ptr %18, align 8
  %20 = getelementptr inbounds nuw %struct.List, ptr %19, i32 0, i32 1
  %21 = load i32, ptr %20, align 4
  %22 = icmp slt i32 %17, %21
  br i1 %22, label %23, label %32

23:                                               ; preds = %15
  %24 = getelementptr inbounds nuw %struct.ForEachState, ptr %4, i32 0, i32 0
  %25 = load ptr, ptr %24, align 8
  %26 = getelementptr inbounds nuw %struct.List, ptr %25, i32 0, i32 3
  %27 = load ptr, ptr %26, align 8
  %28 = getelementptr inbounds nuw %struct.ForEachState, ptr %4, i32 0, i32 1
  %29 = load i32, ptr %28, align 8
  %30 = sext i32 %29 to i64
  %31 = getelementptr inbounds %union.ListCell, ptr %27, i64 %30
  store ptr %31, ptr %3, align 8
  br label %33

32:                                               ; preds = %15, %11
  store ptr null, ptr %3, align 8
  br label %33

33:                                               ; preds = %32, %23
  %34 = phi i32 [ 1, %23 ], [ 0, %32 ]
  %35 = icmp ne i32 %34, 0
  br i1 %35, label %37, label %36

36:                                               ; preds = %33
  call void @llvm.lifetime.end.p0(i64 16, ptr %4) #8
  br label %44

37:                                               ; preds = %33
  %38 = load ptr, ptr %3, align 8
  %39 = load ptr, ptr %38, align 8
  call void @dump_stmt(ptr noundef %39)
  br label %40

40:                                               ; preds = %37
  %41 = getelementptr inbounds nuw %struct.ForEachState, ptr %4, i32 0, i32 1
  %42 = load i32, ptr %41, align 8
  %43 = add i32 %42, 1
  store i32 %43, ptr %41, align 8
  br label %11, !llvm.loop !66

44:                                               ; preds = %36
  %45 = load i32, ptr @dump_indent, align 4
  %46 = sub i32 %45, 2
  store i32 %46, ptr @dump_indent, align 4
  call void @llvm.lifetime.end.p0(i64 8, ptr %3) #8
  ret void
}