; Function Attrs: nounwind uwtable
define internal fastcc void @dump_stmts(ptr noundef readonly captures(address_is_null) %0) unnamed_addr #1 {
  %2 = load i32, ptr @dump_indent, align 4
  %3 = add i32 %2, 2
  store i32 %3, ptr @dump_indent, align 4
  %4 = getelementptr inbounds nuw i8, ptr %0, i64 4
  %.not = icmp eq ptr %0, null
  br i1 %.not, label %._crit_edge, label %.lr.ph

.lr.ph:                                           ; preds = %1
  %5 = getelementptr inbounds nuw i8, ptr %0, i64 16
  %6 = load i32, ptr %4, align 4
  %7 = icmp sgt i32 %6, 0
  br i1 %7, label %.lr.ph13, label %._crit_edge

._crit_edge.loopexit:                             ; preds = %.lr.ph13
  %.pre = load i32, ptr @dump_indent, align 4
  %8 = add i32 %.pre, -2
  br label %._crit_edge

._crit_edge:                                      ; preds = %._crit_edge.loopexit, %.lr.ph, %1
  %9 = phi i32 [ %8, %._crit_edge.loopexit ], [ %2, %.lr.ph ], [ %2, %1 ]
  store i32 %9, ptr @dump_indent, align 4
  ret void

.lr.ph13:                                         ; preds = %.lr.ph, %.lr.ph13
  %indvars.iv = phi i64 [ %indvars.iv.next, %.lr.ph13 ], [ 0, %.lr.ph ]
  %10 = load ptr, ptr %5, align 8
  %11 = getelementptr inbounds nuw %union.ListCell, ptr %10, i64 %indvars.iv
  %12 = load ptr, ptr %11, align 8
  tail call fastcc void @dump_stmt(ptr noundef %12)
  %indvars.iv.next = add nuw nsw i64 %indvars.iv, 1
  %13 = load i32, ptr %4, align 4
  %14 = sext i32 %13 to i64
  %15 = icmp slt i64 %indvars.iv.next, %14
  br i1 %15, label %.lr.ph13, label %._crit_edge.loopexit
}